(dp1
S'loss'
p2
cnumpy.core.multiarray
_reconstruct
p3
(cnumpy
ndarray
p4
(I0
tS'b'
tRp5
(I1
(I1
tcnumpy
dtype
p6
(S'f8'
I0
I1
tRp7
(I3
S'<'
NNNI-1
I-1
I0
tbI00
S'\xb1zXI!\x1e\xe3?'
tbsS'accuracy'
p8
g3
(g4
(I0
tS'b'
tRp9
(I1
(I1
tg7
I00
S'\x1d\xbf\x8e\x7f\x89\x0b\xe8?'
tbs.